(lp0
(S'cppflags'
p1
ccopy_reg
_reconstructor
p2
(cino.utils
SpaceList
p3
c__builtin__
list
p4
(lp5
S'-mmcu=atmega328p'
p6
aS'-DF_CPU=16000000L'
p7
aS'-DARDUINO=105'
p8
aS'-I/usr/share/arduino/hardware/arduino/cores/arduino'
p9
aS'-ffunction-sections'
p10
aS'-fdata-sections'
p11
aS'-g'
p12
aS'-Os'
p13
aS'-w'
p14
aS'-I/usr/share/arduino/hardware/arduino/variants/standard'
p15
aS'-I/usr/share/arduino/hardware/arduino/cores/arduino'
p16
aS'-I/usr/share/arduino/hardware/arduino/cores/arduino/avr-libc'
p17
atp18
Rp19
tp20
a(S'arduino_variants_dir'
p21
S'/usr/share/arduino/hardware/arduino/variants'
p22
tp23
a(S'version.txt'
p24
S'/usr/share/arduino/lib/version.txt'
p25
tp26
a(S'used_libs'
p27
(lp28
S'/usr/share/arduino/hardware/arduino/cores/arduino'
p29
atp30
a(S'cxx'
p31
S'/usr/share/arduino/hardware/tools/avr/bin/avr-g++'
p32
tp33
a(S'make'
p34
S'/usr/share/arduino/hardware/tools/avr/bin/make'
p35
tp36
a(S'build_dir'
p37
S'.build/uno'
p38
tp39
a(S'arduino_core_dir'
p40
g29
tp41
a(S'boards.txt'
p42
S'/usr/share/arduino/hardware/arduino/boards.txt'
p43
tp44
a(S'cxxflags'
p45
g2
(g3
g4
(lp46
S'-fno-exceptions'
p47
atp48
Rp49
tp50
a(S'cc'
p51
S'/usr/share/arduino/hardware/tools/avr/bin/avr-gcc'
p52
tp53
a(S'deps'
p54
g2
(g3
g4
(lp55
S'.build/uno/src/dependencies.d'
p56
aS'.build/uno/arduino/dependencies.d'
p57
atp58
Rp59
tp60
a(S'ar'
p61
S'/usr/share/arduino/hardware/tools/avr/bin/avr-ar'
p62
tp63
a(S'names'
p64
(dp65
S'cpp'
p66
S'%s.cpp'
p67
sS'obj'
p68
S'%s.o'
p69
sS'deps'
p70
S'%s.d'
p71
sS'lib'
p72
S'lib%s.a'
p73
stp74
a(S'cflags'
p75
g2
(g3
g4
(lp76
tp77
Rp78
tp79
a(S'arduino_libraries_dir'
p80
S'/usr/share/arduino/libraries'
p81
tp82
a(S'arduino_lib_version'
p83
g2
(cino.environment
Version
p84
c__builtin__
tuple
p85
(I1
I0
I5
tp86
tp87
Rp88
tp89
a(S'objcopy'
p90
S'/usr/share/arduino/hardware/tools/avr/bin/avr-objcopy'
p91
tp92
a(S'board_models'
p93
cino.environment
BoardModels
p94
((lp95
(lp96
S'uno'
p97
a(dp98
S'bootloader'
p99
(dp100
S'extended_fuses'
p101
S'0x05'
p102
sS'high_fuses'
p103
S'0xde'
p104
sS'low_fuses'
p105
S'0xff'
p106
sS'lock_bits'
p107
S'0x0F'
p108
sS'file'
p109
S'optiboot_atmega328.hex'
p110
sS'path'
p111
S'optiboot'
p112
sS'unlock_bits'
p113
S'0x3F'
p114
ssS'upload'
p115
(dp116
S'speed'
p117
S'115200'
p118
sS'maximum_size'
p119
S'32256'
p120
sS'protocol'
p121
S'arduino'
p122
ssS'name'
p123
S'Arduino Uno'
p124
sS'build'
p125
(dp126
S'core'
p127
S'arduino'
p128
sS'mcu'
p129
S'atmega328p'
p130
sS'f_cpu'
p131
S'16000000L'
p132
sS'variant'
p133
S'standard'
p134
ssaa(lp135
S'atmega328'
p136
a(dp137
S'bootloader'
p138
(dp139
S'extended_fuses'
p140
S'0x05'
p141
sS'high_fuses'
p142
S'0xDA'
p143
sS'low_fuses'
p144
S'0xFF'
p145
sS'lock_bits'
p146
S'0x0F'
p147
sS'file'
p148
S'ATmegaBOOT_168_atmega328.hex'
p149
sS'path'
p150
S'atmega'
p151
sS'unlock_bits'
p152
S'0x3F'
p153
ssS'upload'
p154
(dp155
S'speed'
p156
S'57600'
p157
sS'maximum_size'
p158
S'30720'
p159
sS'protocol'
p160
S'arduino'
p161
ssS'name'
p162
S'Arduino Duemilanove w/ ATmega328'
p163
sS'build'
p164
(dp165
S'core'
p166
S'arduino'
p167
sS'mcu'
p168
S'atmega328p'
p169
sS'f_cpu'
p170
S'16000000L'
p171
sS'variant'
p172
S'standard'
p173
ssaa(lp174
S'diecimila'
p175
a(dp176
S'bootloader'
p177
(dp178
S'extended_fuses'
p179
S'0x00'
p180
sS'high_fuses'
p181
S'0xdd'
p182
sS'low_fuses'
p183
S'0xff'
p184
sS'lock_bits'
p185
S'0x0F'
p186
sS'file'
p187
S'ATmegaBOOT_168_diecimila.hex'
p188
sS'path'
p189
S'atmega'
p190
sS'unlock_bits'
p191
S'0x3F'
p192
ssS'upload'
p193
(dp194
S'speed'
p195
S'19200'
p196
sS'maximum_size'
p197
S'14336'
p198
sS'protocol'
p199
S'arduino'
p200
ssS'name'
p201
S'Arduino Diecimila or Duemilanove w/ ATmega168'
p202
sS'build'
p203
(dp204
S'core'
p205
S'arduino'
p206
sS'mcu'
p207
S'atmega168'
p208
sS'f_cpu'
p209
S'16000000L'
p210
sS'variant'
p211
S'standard'
p212
ssaa(lp213
S'nano328'
p214
a(dp215
S'bootloader'
p216
(dp217
S'extended_fuses'
p218
S'0x05'
p219
sS'high_fuses'
p220
S'0xDA'
p221
sS'low_fuses'
p222
S'0xFF'
p223
sS'lock_bits'
p224
S'0x0F'
p225
sS'file'
p226
S'ATmegaBOOT_168_atmega328.hex'
p227
sS'path'
p228
S'atmega'
p229
sS'unlock_bits'
p230
S'0x3F'
p231
ssS'upload'
p232
(dp233
S'speed'
p234
S'57600'
p235
sS'maximum_size'
p236
S'30720'
p237
sS'protocol'
p238
S'arduino'
p239
ssS'name'
p240
S'Arduino Nano w/ ATmega328'
p241
sS'build'
p242
(dp243
S'core'
p244
S'arduino'
p245
sS'mcu'
p246
S'atmega328p'
p247
sS'f_cpu'
p248
S'16000000L'
p249
sS'variant'
p250
S'eightanaloginputs'
p251
ssaa(lp252
S'nano'
p253
a(dp254
S'bootloader'
p255
(dp256
S'extended_fuses'
p257
S'0x00'
p258
sS'high_fuses'
p259
S'0xdd'
p260
sS'low_fuses'
p261
S'0xff'
p262
sS'lock_bits'
p263
S'0x0F'
p264
sS'file'
p265
S'ATmegaBOOT_168_diecimila.hex'
p266
sS'path'
p267
S'atmega'
p268
sS'unlock_bits'
p269
S'0x3F'
p270
ssS'upload'
p271
(dp272
S'speed'
p273
S'19200'
p274
sS'maximum_size'
p275
S'14336'
p276
sS'protocol'
p277
S'arduino'
p278
ssS'name'
p279
S'Arduino Nano w/ ATmega168'
p280
sS'build'
p281
(dp282
S'core'
p283
S'arduino'
p284
sS'mcu'
p285
S'atmega168'
p286
sS'f_cpu'
p287
S'16000000L'
p288
sS'variant'
p289
S'eightanaloginputs'
p290
ssaa(lp291
S'mega2560'
p292
a(dp293
S'bootloader'
p294
(dp295
S'extended_fuses'
p296
S'0xFD'
p297
sS'high_fuses'
p298
S'0xD8'
p299
sS'low_fuses'
p300
S'0xFF'
p301
sS'lock_bits'
p302
S'0x0F'
p303
sS'file'
p304
S'stk500boot_v2_mega2560.hex'
p305
sS'path'
p306
S'stk500v2'
p307
sS'unlock_bits'
p308
S'0x3F'
p309
ssS'upload'
p310
(dp311
S'speed'
p312
S'115200'
p313
sS'maximum_size'
p314
S'258048'
p315
sS'protocol'
p316
S'wiring'
p317
ssS'name'
p318
S'Arduino Mega 2560 or Mega ADK'
p319
sS'build'
p320
(dp321
S'core'
p322
S'arduino'
p323
sS'mcu'
p324
S'atmega2560'
p325
sS'f_cpu'
p326
S'16000000L'
p327
sS'variant'
p328
S'mega'
p329
ssaa(lp330
S'mega'
p331
a(dp332
S'bootloader'
p333
(dp334
S'extended_fuses'
p335
S'0xF5'
p336
sS'high_fuses'
p337
S'0xDA'
p338
sS'low_fuses'
p339
S'0xFF'
p340
sS'lock_bits'
p341
S'0x0F'
p342
sS'file'
p343
S'ATmegaBOOT_168_atmega1280.hex'
p344
sS'path'
p345
S'atmega'
p346
sS'unlock_bits'
p347
S'0x3F'
p348
ssS'upload'
p349
(dp350
S'speed'
p351
S'57600'
p352
sS'maximum_size'
p353
S'126976'
p354
sS'protocol'
p355
S'arduino'
p356
ssS'name'
p357
S'Arduino Mega (ATmega1280)'
p358
sS'build'
p359
(dp360
S'core'
p361
S'arduino'
p362
sS'mcu'
p363
S'atmega1280'
p364
sS'f_cpu'
p365
S'16000000L'
p366
sS'variant'
p367
S'mega'
p368
ssaa(lp369
S'leonardo'
p370
a(dp371
S'bootloader'
p372
(dp373
S'extended_fuses'
p374
S'0xcb'
p375
sS'high_fuses'
p376
S'0xd8'
p377
sS'low_fuses'
p378
S'0xff'
p379
sS'lock_bits'
p380
S'0x2F'
p381
sS'file'
p382
S'Caterina-Leonardo.hex'
p383
sS'path'
p384
S'caterina'
p385
sS'unlock_bits'
p386
S'0x3F'
p387
ssS'upload'
p388
(dp389
S'speed'
p390
S'57600'
p391
sS'maximum_size'
p392
S'28672'
p393
sS'protocol'
p394
S'avr109'
p395
sS'disable_flushing'
p396
S'true'
p397
ssS'name'
p398
S'Arduino Leonardo'
p399
sS'build'
p400
(dp401
S'core'
p402
S'arduino'
p403
sS'f_cpu'
p404
S'16000000L'
p405
sS'vid'
p406
S'0x2341'
p407
sS'pid'
p408
S'0x8036'
p409
sS'variant'
p410
S'leonardo'
p411
sS'mcu'
p412
S'atmega32u4'
p413
ssaa(lp414
S'esplora'
p415
a(dp416
S'bootloader'
p417
(dp418
S'extended_fuses'
p419
S'0xcb'
p420
sS'high_fuses'
p421
S'0xd8'
p422
sS'low_fuses'
p423
S'0xff'
p424
sS'lock_bits'
p425
S'0x2F'
p426
sS'file'
p427
S'Caterina-Esplora.hex'
p428
sS'path'
p429
S'caterina'
p430
sS'unlock_bits'
p431
S'0x3F'
p432
ssS'upload'
p433
(dp434
S'speed'
p435
S'57600'
p436
sS'maximum_size'
p437
S'28672'
p438
sS'protocol'
p439
S'avr109'
p440
sS'disable_flushing'
p441
S'true'
p442
ssS'name'
p443
S'Arduino Esplora'
p444
sS'build'
p445
(dp446
S'core'
p447
S'arduino'
p448
sS'f_cpu'
p449
S'16000000L'
p450
sS'vid'
p451
S'0x2341'
p452
sS'pid'
p453
S'0x803C'
p454
sS'variant'
p455
S'leonardo'
p456
sS'mcu'
p457
S'atmega32u4'
p458
ssaa(lp459
S'micro'
p460
a(dp461
S'bootloader'
p462
(dp463
S'extended_fuses'
p464
S'0xcb'
p465
sS'high_fuses'
p466
S'0xd8'
p467
sS'low_fuses'
p468
S'0xff'
p469
sS'lock_bits'
p470
S'0x2F'
p471
sS'file'
p472
S'Caterina-Micro.hex'
p473
sS'path'
p474
S'caterina'
p475
sS'unlock_bits'
p476
S'0x3F'
p477
ssS'upload'
p478
(dp479
S'speed'
p480
S'57600'
p481
sS'maximum_size'
p482
S'28672'
p483
sS'protocol'
p484
S'avr109'
p485
sS'disable_flushing'
p486
S'true'
p487
ssS'name'
p488
S'Arduino Micro'
p489
sS'build'
p490
(dp491
S'core'
p492
S'arduino'
p493
sS'f_cpu'
p494
S'16000000L'
p495
sS'vid'
p496
S'0x2341'
p497
sS'pid'
p498
S'0x8037'
p499
sS'variant'
p500
S'micro'
p501
sS'mcu'
p502
S'atmega32u4'
p503
ssaa(lp504
S'mini328'
p505
a(dp506
S'bootloader'
p507
(dp508
S'extended_fuses'
p509
S'0x05'
p510
sS'high_fuses'
p511
S'0xd8'
p512
sS'low_fuses'
p513
S'0xff'
p514
sS'lock_bits'
p515
S'0x0F'
p516
sS'file'
p517
S'optiboot_atmega328-Mini.hex'
p518
sS'path'
p519
S'optiboot'
p520
sS'unlock_bits'
p521
S'0x3F'
p522
ssS'upload'
p523
(dp524
S'speed'
p525
S'115200'
p526
sS'maximum_size'
p527
S'28672'
p528
sS'protocol'
p529
S'arduino'
p530
ssS'name'
p531
S'Arduino Mini w/ ATmega328'
p532
sS'build'
p533
(dp534
S'core'
p535
S'arduino'
p536
sS'mcu'
p537
S'atmega328p'
p538
sS'f_cpu'
p539
S'16000000L'
p540
sS'variant'
p541
S'eightanaloginputs'
p542
ssaa(lp543
S'mini'
p544
a(dp545
S'bootloader'
p546
(dp547
S'extended_fuses'
p548
S'0x00'
p549
sS'high_fuses'
p550
S'0xdd'
p551
sS'low_fuses'
p552
S'0xff'
p553
sS'lock_bits'
p554
S'0x0F'
p555
sS'file'
p556
S'ATmegaBOOT_168_ng.hex'
p557
sS'path'
p558
S'atmega'
p559
sS'unlock_bits'
p560
S'0x3F'
p561
ssS'upload'
p562
(dp563
S'speed'
p564
S'19200'
p565
sS'maximum_size'
p566
S'14336'
p567
sS'protocol'
p568
S'arduino'
p569
ssS'name'
p570
S'Arduino Mini w/ ATmega168'
p571
sS'build'
p572
(dp573
S'core'
p574
S'arduino'
p575
sS'mcu'
p576
S'atmega168'
p577
sS'f_cpu'
p578
S'16000000L'
p579
sS'variant'
p580
S'eightanaloginputs'
p581
ssaa(lp582
S'ethernet'
p583
a(dp584
S'bootloader'
p585
(dp586
S'extended_fuses'
p587
S'0x05'
p588
sS'high_fuses'
p589
S'0xde'
p590
sS'low_fuses'
p591
S'0xff'
p592
sS'lock_bits'
p593
S'0x0F'
p594
sS'file'
p595
S'optiboot_atmega328.hex'
p596
sS'path'
p597
S'optiboot'
p598
sS'unlock_bits'
p599
S'0x3F'
p600
ssS'upload'
p601
(dp602
S'speed'
p603
S'115200'
p604
sS'maximum_size'
p605
S'32256'
p606
sS'protocol'
p607
S'arduino'
p608
ssS'name'
p609
S'Arduino Ethernet'
p610
sS'build'
p611
(dp612
S'f_cpu'
p613
S'16000000L'
p614
sS'mcu'
p615
S'atmega328p'
p616
sS'variant'
p617
S'standard'
p618
sS'core'
p619
S'arduino'
p620
ssaa(lp621
S'fio'
p622
a(dp623
S'bootloader'
p624
(dp625
S'extended_fuses'
p626
S'0x05'
p627
sS'high_fuses'
p628
S'0xDA'
p629
sS'low_fuses'
p630
S'0xFF'
p631
sS'lock_bits'
p632
S'0x0F'
p633
sS'file'
p634
S'ATmegaBOOT_168_atmega328_pro_8MHz.hex'
p635
sS'path'
p636
S'arduino:atmega'
p637
sS'unlock_bits'
p638
S'0x3F'
p639
ssS'upload'
p640
(dp641
S'speed'
p642
S'57600'
p643
sS'maximum_size'
p644
S'30720'
p645
sS'protocol'
p646
S'arduino'
p647
ssS'name'
p648
S'Arduino Fio'
p649
sS'build'
p650
(dp651
S'core'
p652
S'arduino'
p653
sS'mcu'
p654
S'atmega328p'
p655
sS'f_cpu'
p656
S'8000000L'
p657
sS'variant'
p658
S'eightanaloginputs'
p659
ssaa(lp660
S'bt328'
p661
a(dp662
S'bootloader'
p663
(dp664
S'extended_fuses'
p665
S'0x05'
p666
sS'high_fuses'
p667
S'0xd8'
p668
sS'low_fuses'
p669
S'0xff'
p670
sS'lock_bits'
p671
S'0x0F'
p672
sS'file'
p673
S'ATmegaBOOT_168_atmega328_bt.hex'
p674
sS'path'
p675
S'bt'
p676
sS'unlock_bits'
p677
S'0x3F'
p678
ssS'upload'
p679
(dp680
S'speed'
p681
S'19200'
p682
sS'maximum_size'
p683
S'28672'
p684
sS'protocol'
p685
S'arduino'
p686
sS'disable_flushing'
p687
S'true'
p688
ssS'name'
p689
S'Arduino BT w/ ATmega328'
p690
sS'build'
p691
(dp692
S'core'
p693
S'arduino'
p694
sS'mcu'
p695
S'atmega328p'
p696
sS'f_cpu'
p697
S'16000000L'
p698
sS'variant'
p699
S'eightanaloginputs'
p700
ssaa(lp701
S'bt'
p702
a(dp703
S'bootloader'
p704
(dp705
S'extended_fuses'
p706
S'0x00'
p707
sS'high_fuses'
p708
S'0xdd'
p709
sS'low_fuses'
p710
S'0xff'
p711
sS'lock_bits'
p712
S'0x0F'
p713
sS'file'
p714
S'ATmegaBOOT_168.hex'
p715
sS'path'
p716
S'bt'
p717
sS'unlock_bits'
p718
S'0x3F'
p719
ssS'upload'
p720
(dp721
S'speed'
p722
S'19200'
p723
sS'maximum_size'
p724
S'14336'
p725
sS'protocol'
p726
S'arduino'
p727
sS'disable_flushing'
p728
S'true'
p729
ssS'name'
p730
S'Arduino BT w/ ATmega168'
p731
sS'build'
p732
(dp733
S'core'
p734
S'arduino'
p735
sS'mcu'
p736
S'atmega168'
p737
sS'f_cpu'
p738
S'16000000L'
p739
sS'variant'
p740
S'eightanaloginputs'
p741
ssaa(lp742
S'LilyPadUSB'
p743
a(dp744
S'bootloader'
p745
(dp746
S'extended_fuses'
p747
S'0xce'
p748
sS'high_fuses'
p749
S'0xd8'
p750
sS'low_fuses'
p751
S'0xff'
p752
sS'lock_bits'
p753
S'0x2F'
p754
sS'file'
p755
S'Caterina-LilyPadUSB.hex'
p756
sS'path'
p757
S'caterina-LilyPadUSB'
p758
sS'unlock_bits'
p759
S'0x3F'
p760
ssS'upload'
p761
(dp762
S'speed'
p763
S'57600'
p764
sS'maximum_size'
p765
S'28672'
p766
sS'protocol'
p767
S'avr109'
p768
sS'disable_flushing'
p769
S'true'
p770
ssS'name'
p771
S'LilyPad Arduino USB'
p772
sS'build'
p773
(dp774
S'core'
p775
S'arduino'
p776
sS'f_cpu'
p777
S'8000000L'
p778
sS'vid'
p779
S'0x1B4F'
p780
sS'pid'
p781
S'0x9208'
p782
sS'variant'
p783
S'leonardo'
p784
sS'mcu'
p785
S'atmega32u4'
p786
ssaa(lp787
S'lilypad328'
p788
a(dp789
S'bootloader'
p790
(dp791
S'extended_fuses'
p792
S'0x05'
p793
sS'high_fuses'
p794
S'0xDA'
p795
sS'low_fuses'
p796
S'0xFF'
p797
sS'lock_bits'
p798
S'0x0F'
p799
sS'file'
p800
S'ATmegaBOOT_168_atmega328_pro_8MHz.hex'
p801
sS'path'
p802
S'atmega'
p803
sS'unlock_bits'
p804
S'0x3F'
p805
ssS'upload'
p806
(dp807
S'speed'
p808
S'57600'
p809
sS'maximum_size'
p810
S'30720'
p811
sS'protocol'
p812
S'arduino'
p813
ssS'name'
p814
S'LilyPad Arduino w/ ATmega328'
p815
sS'build'
p816
(dp817
S'core'
p818
S'arduino'
p819
sS'mcu'
p820
S'atmega328p'
p821
sS'f_cpu'
p822
S'8000000L'
p823
sS'variant'
p824
S'standard'
p825
ssaa(lp826
S'lilypad'
p827
a(dp828
S'bootloader'
p829
(dp830
S'extended_fuses'
p831
S'0x00'
p832
sS'high_fuses'
p833
S'0xdd'
p834
sS'low_fuses'
p835
S'0xe2'
p836
sS'lock_bits'
p837
S'0x0F'
p838
sS'file'
p839
S'LilyPadBOOT_168.hex'
p840
sS'path'
p841
S'lilypad'
p842
sS'unlock_bits'
p843
S'0x3F'
p844
ssS'upload'
p845
(dp846
S'speed'
p847
S'19200'
p848
sS'maximum_size'
p849
S'14336'
p850
sS'protocol'
p851
S'arduino'
p852
ssS'name'
p853
S'LilyPad Arduino w/ ATmega168'
p854
sS'build'
p855
(dp856
S'core'
p857
S'arduino'
p858
sS'mcu'
p859
S'atmega168'
p860
sS'f_cpu'
p861
S'8000000L'
p862
sS'variant'
p863
S'standard'
p864
ssaa(lp865
S'pro5v328'
p866
a(dp867
S'bootloader'
p868
(dp869
S'extended_fuses'
p870
S'0x05'
p871
sS'high_fuses'
p872
S'0xDA'
p873
sS'low_fuses'
p874
S'0xFF'
p875
sS'lock_bits'
p876
S'0x0F'
p877
sS'file'
p878
S'ATmegaBOOT_168_atmega328.hex'
p879
sS'path'
p880
S'atmega'
p881
sS'unlock_bits'
p882
S'0x3F'
p883
ssS'upload'
p884
(dp885
S'speed'
p886
S'57600'
p887
sS'maximum_size'
p888
S'30720'
p889
sS'protocol'
p890
S'arduino'
p891
ssS'name'
p892
S'Arduino Pro or Pro Mini (5V, 16 MHz) w/ ATmega328'
p893
sS'build'
p894
(dp895
S'core'
p896
S'arduino'
p897
sS'mcu'
p898
S'atmega328p'
p899
sS'f_cpu'
p900
S'16000000L'
p901
sS'variant'
p902
S'standard'
p903
ssaa(lp904
S'pro5v'
p905
a(dp906
S'bootloader'
p907
(dp908
S'extended_fuses'
p909
S'0x00'
p910
sS'high_fuses'
p911
S'0xdd'
p912
sS'low_fuses'
p913
S'0xff'
p914
sS'lock_bits'
p915
S'0x0F'
p916
sS'file'
p917
S'ATmegaBOOT_168_diecimila.hex'
p918
sS'path'
p919
S'atmega'
p920
sS'unlock_bits'
p921
S'0x3F'
p922
ssS'upload'
p923
(dp924
S'speed'
p925
S'19200'
p926
sS'maximum_size'
p927
S'14336'
p928
sS'protocol'
p929
S'arduino'
p930
ssS'name'
p931
S'Arduino Pro or Pro Mini (5V, 16 MHz) w/ ATmega168'
p932
sS'build'
p933
(dp934
S'core'
p935
S'arduino'
p936
sS'mcu'
p937
S'atmega168'
p938
sS'f_cpu'
p939
S'16000000L'
p940
sS'variant'
p941
S'standard'
p942
ssaa(lp943
S'pro328'
p944
a(dp945
S'bootloader'
p946
(dp947
S'extended_fuses'
p948
S'0x05'
p949
sS'high_fuses'
p950
S'0xDA'
p951
sS'low_fuses'
p952
S'0xFF'
p953
sS'lock_bits'
p954
S'0x0F'
p955
sS'file'
p956
S'ATmegaBOOT_168_atmega328_pro_8MHz.hex'
p957
sS'path'
p958
S'atmega'
p959
sS'unlock_bits'
p960
S'0x3F'
p961
ssS'upload'
p962
(dp963
S'speed'
p964
S'57600'
p965
sS'maximum_size'
p966
S'30720'
p967
sS'protocol'
p968
S'arduino'
p969
ssS'name'
p970
S'Arduino Pro or Pro Mini (3.3V, 8 MHz) w/ ATmega328'
p971
sS'build'
p972
(dp973
S'core'
p974
S'arduino'
p975
sS'mcu'
p976
S'atmega328p'
p977
sS'f_cpu'
p978
S'8000000L'
p979
sS'variant'
p980
S'standard'
p981
ssaa(lp982
S'pro'
p983
a(dp984
S'bootloader'
p985
(dp986
S'extended_fuses'
p987
S'0x00'
p988
sS'high_fuses'
p989
S'0xdd'
p990
sS'low_fuses'
p991
S'0xc6'
p992
sS'lock_bits'
p993
S'0x0F'
p994
sS'file'
p995
S'ATmegaBOOT_168_pro_8MHz.hex'
p996
sS'path'
p997
S'atmega'
p998
sS'unlock_bits'
p999
S'0x3F'
p1000
ssS'upload'
p1001
(dp1002
S'speed'
p1003
S'19200'
p1004
sS'maximum_size'
p1005
S'14336'
p1006
sS'protocol'
p1007
S'arduino'
p1008
ssS'name'
p1009
S'Arduino Pro or Pro Mini (3.3V, 8 MHz) w/ ATmega168'
p1010
sS'build'
p1011
(dp1012
S'core'
p1013
S'arduino'
p1014
sS'mcu'
p1015
S'atmega168'
p1016
sS'f_cpu'
p1017
S'8000000L'
p1018
sS'variant'
p1019
S'standard'
p1020
ssaa(lp1021
S'atmega168'
p1022
a(dp1023
S'bootloader'
p1024
(dp1025
S'extended_fuses'
p1026
S'0x00'
p1027
sS'high_fuses'
p1028
S'0xdd'
p1029
sS'low_fuses'
p1030
S'0xff'
p1031
sS'lock_bits'
p1032
S'0x0F'
p1033
sS'file'
p1034
S'ATmegaBOOT_168_ng.hex'
p1035
sS'path'
p1036
S'atmega'
p1037
sS'unlock_bits'
p1038
S'0x3F'
p1039
ssS'upload'
p1040
(dp1041
S'speed'
p1042
S'19200'
p1043
sS'maximum_size'
p1044
S'14336'
p1045
sS'protocol'
p1046
S'arduino'
p1047
ssS'name'
p1048
S'Arduino NG or older w/ ATmega168'
p1049
sS'build'
p1050
(dp1051
S'core'
p1052
S'arduino'
p1053
sS'mcu'
p1054
S'atmega168'
p1055
sS'f_cpu'
p1056
S'16000000L'
p1057
sS'variant'
p1058
S'standard'
p1059
ssaa(lp1060
S'atmega8'
p1061
a(dp1062
S'bootloader'
p1063
(dp1064
S'high_fuses'
p1065
S'0xca'
p1066
sS'low_fuses'
p1067
S'0xdf'
p1068
sS'lock_bits'
p1069
S'0x0F'
p1070
sS'file'
p1071
S'ATmegaBOOT-prod-firmware-2009-11-07.hex'
p1072
sS'path'
p1073
S'atmega8'
p1074
sS'unlock_bits'
p1075
S'0x3F'
p1076
ssS'upload'
p1077
(dp1078
S'speed'
p1079
S'19200'
p1080
sS'maximum_size'
p1081
S'7168'
p1082
sS'protocol'
p1083
S'arduino'
p1084
ssS'name'
p1085
S'Arduino NG or older w/ ATmega8'
p1086
sS'build'
p1087
(dp1088
S'core'
p1089
S'arduino'
p1090
sS'mcu'
p1091
S'atmega8'
p1092
sS'f_cpu'
p1093
S'16000000L'
p1094
sS'variant'
p1095
S'standard'
p1096
ssaa(lp1097
S'robotControl'
p1098
a(dp1099
S'bootloader'
p1100
(dp1101
S'extended_fuses'
p1102
S'0xcb'
p1103
sS'high_fuses'
p1104
S'0xd8'
p1105
sS'low_fuses'
p1106
S'0xff'
p1107
sS'lock_bits'
p1108
S'0x2F'
p1109
sS'file'
p1110
S'Caterina-Robot-Control.hex'
p1111
sS'path'
p1112
S'caterina-Arduino_Robot'
p1113
sS'unlock_bits'
p1114
S'0x3F'
p1115
ssS'upload'
p1116
(dp1117
S'speed'
p1118
S'57600'
p1119
sS'maximum_size'
p1120
S'28672'
p1121
sS'protocol'
p1122
S'avr109'
p1123
sS'disable_flushing'
p1124
S'true'
p1125
ssS'name'
p1126
S'Arduino Robot Control'
p1127
sS'build'
p1128
(dp1129
S'core'
p1130
S'robot'
p1131
sS'f_cpu'
p1132
S'16000000L'
p1133
sS'vid'
p1134
S'0x2341'
p1135
sS'pid'
p1136
S'0x8038'
p1137
sS'variant'
p1138
S'robot_control'
p1139
sS'mcu'
p1140
S'atmega32u4'
p1141
ssaa(lp1142
S'robotMotor'
p1143
a(dp1144
S'bootloader'
p1145
(dp1146
S'extended_fuses'
p1147
S'0xcb'
p1148
sS'high_fuses'
p1149
S'0xd8'
p1150
sS'low_fuses'
p1151
S'0xff'
p1152
sS'lock_bits'
p1153
S'0x2F'
p1154
sS'file'
p1155
S'Caterina-Robot-Motor.hex'
p1156
sS'path'
p1157
S'caterina-Arduino_Robot'
p1158
sS'unlock_bits'
p1159
S'0x3F'
p1160
ssS'upload'
p1161
(dp1162
S'speed'
p1163
S'57600'
p1164
sS'maximum_size'
p1165
S'28672'
p1166
sS'protocol'
p1167
S'avr109'
p1168
sS'disable_flushing'
p1169
S'true'
p1170
ssS'name'
p1171
S'Arduino Robot Motor'
p1172
sS'build'
p1173
(dp1174
S'core'
p1175
S'robot'
p1176
sS'f_cpu'
p1177
S'16000000L'
p1178
sS'vid'
p1179
S'0x2341'
p1180
sS'pid'
p1181
S'0x8039'
p1182
sS'variant'
p1183
S'robot_motor'
p1184
sS'mcu'
p1185
S'atmega32u4'
p1186
ssaatp1187
Rp1188
(dp1189
S'default'
p1190
S'uno'
p1191
sbtp1192
a(S'ldflags'
p1193
g2
(g3
g4
(lp1194
g6
aS'-Wl,-Os'
p1195
aS'-Wl,--gc-sections'
p1196
atp1197
Rp1198
tp1199
a.